; Function Attrs: nounwind uwtable
define ptr @l___private_Init_Omega_IntList_0__List_getElem_x3f__zipWithAll_match__1_splitter___rarg(ptr noundef %0, ptr noundef %1, ptr noundef %2, ptr noundef %3) local_unnamed_addr #0 {
  %5 = ptrtoint ptr %0 to i64
  %6 = and i64 %5, 1
  %.not.i14 = icmp eq i64 %6, 0
  br i1 %.not.i14, label %10, label %7

7:                                                ; preds = %4
  %8 = lshr i64 %5, 1
  %9 = trunc i64 %8 to i32
  br label %lean_obj_tag.exit

10:                                               ; preds = %4
  %11 = getelementptr i8, ptr %0, i64 4
  %.val.i = load i32, ptr %11, align 4
  %12 = lshr i32 %.val.i, 24
  br label %lean_obj_tag.exit

lean_obj_tag.exit:                                ; preds = %7, %10
  %.0.i = phi i32 [ %9, %7 ], [ %12, %10 ]
  %13 = icmp eq i32 %.0.i, 0
  br i1 %13, label %14, label %44

14:                                               ; preds = %lean_obj_tag.exit
  %15 = ptrtoint ptr %1 to i64
  %16 = and i64 %15, 1
  %.not.i15 = icmp eq i64 %16, 0
  br i1 %.not.i15, label %20, label %17

17:                                               ; preds = %14
  %18 = lshr i64 %15, 1
  %19 = trunc i64 %18 to i32
  br label %lean_obj_tag.exit18

20:                                               ; preds = %14
  %21 = getelementptr i8, ptr %1, i64 4
  %.val.i17 = load i32, ptr %21, align 4
  %22 = lshr i32 %.val.i17, 24
  br label %lean_obj_tag.exit18

lean_obj_tag.exit18:                              ; preds = %17, %20
  %.0.i16 = phi i32 [ %19, %17 ], [ %22, %20 ]
  %23 = icmp eq i32 %.0.i16, 0
  br i1 %23, label %24, label %42

24:                                               ; preds = %lean_obj_tag.exit18
  %25 = ptrtoint ptr %3 to i64
  %26 = and i64 %25, 1
  %.not = icmp eq i64 %26, 0
  br i1 %.not, label %27, label %lean_dec.exit

27:                                               ; preds = %24
  %28 = load i32, ptr %3, align 4, !tbaa !8
  %29 = icmp sgt i32 %28, 1
  br i1 %29, label %30, label %32, !prof !11

30:                                               ; preds = %27
  %31 = add nsw i32 %28, -1
  store i32 %31, ptr %3, align 4, !tbaa !8
  br label %lean_dec.exit

32:                                               ; preds = %27
  %.not.i = icmp eq i32 %28, 0
  br i1 %.not.i, label %lean_dec.exit, label %33

33:                                               ; preds = %32
  tail call void @lean_dec_ref_cold(ptr noundef nonnull %3) #3
  br label %lean_dec.exit

lean_dec.exit:                                    ; preds = %33, %32, %30, %24
  %34 = ptrtoint ptr %2 to i64
  %35 = and i64 %34, 1
  %.not21 = icmp eq i64 %35, 0
  br i1 %.not21, label %36, label %lean_inc.exit

36:                                               ; preds = %lean_dec.exit
  %.val.i19 = load i32, ptr %2, align 4, !tbaa !8
  %37 = icmp sgt i32 %.val.i19, 0
  br i1 %37, label %38, label %40, !prof !11

38:                                               ; preds = %36
  %39 = add nuw i32 %.val.i19, 1
  store i32 %39, ptr %2, align 4, !tbaa !8
  br label %lean_inc.exit

40:                                               ; preds = %36
  %.not.i20 = icmp eq i32 %.val.i19, 0
  br i1 %.not.i20, label %lean_inc.exit, label %41

41:                                               ; preds = %40
  tail call void @lean_inc_ref_cold(ptr noundef nonnull %2) #3
  br label %lean_inc.exit

42:                                               ; preds = %lean_obj_tag.exit18
  %43 = tail call ptr @lean_apply_3(ptr noundef %3, ptr noundef %0, ptr noundef %1, ptr noundef nonnull inttoptr (i64 1 to ptr)) #3
  br label %lean_inc.exit

44:                                               ; preds = %lean_obj_tag.exit
  %45 = tail call ptr @lean_apply_3(ptr noundef %3, ptr noundef %0, ptr noundef %1, ptr noundef nonnull inttoptr (i64 1 to ptr)) #3
  br label %lean_inc.exit

lean_inc.exit:                                    ; preds = %lean_dec.exit, %38, %40, %41, %44, %42
  %.0 = phi ptr [ %43, %42 ], [ %45, %44 ], [ %2, %41 ], [ %2, %40 ], [ %2, %38 ], [ %2, %lean_dec.exit ]
  ret ptr %.0
}